; ModuleID = '63/1419.c'
source_filename = "63/1419.c"
target datalayout = "e-m:e-p270:32:32-p271:32:32-p272:64:64-i64:64-f80:128-n8:16:32:64-S128"
target triple = "x86_64-pc-linux-gnu"

@.str = private unnamed_addr constant [6 x i8] c"%d %d\00", align 1
@.str.1 = private unnamed_addr constant [3 x i8] c"%d\00", align 1
@.str.2 = private unnamed_addr constant [4 x i8] c" %d\00", align 1
@.str.3 = private unnamed_addr constant [2 x i8] c"\0A\00", align 1

; Function Attrs: noinline nounwind uwtable
define dso_local i32 @main() #0 {
  %1 = alloca i32, align 4
  %2 = alloca i32, align 4
  %3 = alloca i32, align 4
  %4 = alloca i32, align 4
  %5 = alloca i32, align 4
  %6 = alloca i32, align 4
  %7 = alloca i32, align 4
  %8 = alloca i32, align 4
  %9 = alloca i32, align 4
  %10 = alloca [100 x [100 x i32]], align 16
  %11 = alloca [100 x [100 x i32]], align 16
  %12 = alloca [100 x [100 x i32]], align 16
  %13 = alloca i32, align 4
  store i32 0, i32* %1, align 4
  %14 = bitcast [100 x [100 x i32]]* %12 to i8*
  call void @llvm.memset.p0i8.i64(i8* align 16 %14, i8 0, i64 40000, i1 false)
  %15 = call i32 (i8*, ...) @__isoc99_scanf(i8* getelementptr inbounds ([6 x i8], [6 x i8]* @.str, i64 0, i64 0), i32* %2, i32* %3)
  store i32 0, i32* %6, align 4
  br label %16

16:                                               ; preds = %38, %0
  %17 = load i32, i32* %6, align 4
  %18 = load i32, i32* %2, align 4
  %19 = icmp slt i32 %17, %18
  br i1 %19, label %20, label %41

20:                                               ; preds = %16
  store i32 0, i32* %7, align 4
  br label %21

21:                                               ; preds = %34, %20
  %22 = load i32, i32* %7, align 4
  %23 = load i32, i32* %3, align 4
  %24 = icmp slt i32 %22, %23
  br i1 %24, label %25, label %37

25:                                               ; preds = %21
  %26 = call i32 (i8*, ...) @__isoc99_scanf(i8* getelementptr inbounds ([3 x i8], [3 x i8]* @.str.1, i64 0, i64 0), i32* %8)
  %27 = load i32, i32* %8, align 4
  %28 = load i32, i32* %6, align 4
  %29 = sext i32 %28 to i64
  %30 = getelementptr inbounds [100 x [100 x i32]], [100 x [100 x i32]]* %10, i64 0, i64 %29
  %31 = load i32, i32* %7, align 4
  %32 = sext i32 %31 to i64
  %33 = getelementptr inbounds [100 x i32], [100 x i32]* %30, i64 0, i64 %32
  store i32 %27, i32* %33, align 4
  br label %34

34:                                               ; preds = %25
  %35 = load i32, i32* %7, align 4
  %36 = add nsw i32 %35, 1
  store i32 %36, i32* %7, align 4
  br label %21

37:                                               ; preds = %21
  br label %38

38:                                               ; preds = %37
  %39 = load i32, i32* %6, align 4
  %40 = add nsw i32 %39, 1
  store i32 %40, i32* %6, align 4
  br label %16

41:                                               ; preds = %16
  %42 = call i32 (i8*, ...) @__isoc99_scanf(i8* getelementptr inbounds ([6 x i8], [6 x i8]* @.str, i64 0, i64 0), i32* %4, i32* %5)
  store i32 0, i32* %6, align 4
  br label %43

43:                                               ; preds = %65, %41
  %44 = load i32, i32* %6, align 4
  %45 = load i32, i32* %4, align 4
  %46 = icmp slt i32 %44, %45
  br i1 %46, label %47, label %68

47:                                               ; preds = %43
  store i32 0, i32* %7, align 4
  br label %48

48:                                               ; preds = %61, %47
  %49 = load i32, i32* %7, align 4
  %50 = load i32, i32* %5, align 4
  %51 = icmp slt i32 %49, %50
  br i1 %51, label %52, label %64

52:                                               ; preds = %48
  %53 = call i32 (i8*, ...) @__isoc99_scanf(i8* getelementptr inbounds ([3 x i8], [3 x i8]* @.str.1, i64 0, i64 0), i32* %9)
  %54 = load i32, i32* %9, align 4
  %55 = load i32, i32* %6, align 4
  %56 = sext i32 %55 to i64
  %57 = getelementptr inbounds [100 x [100 x i32]], [100 x [100 x i32]]* %11, i64 0, i64 %56
  %58 = load i32, i32* %7, align 4
  %59 = sext i32 %58 to i64
  %60 = getelementptr inbounds [100 x i32], [100 x i32]* %57, i64 0, i64 %59
  store i32 %54, i32* %60, align 4
  br label %61

61:                                               ; preds = %52
  %62 = load i32, i32* %7, align 4
  %63 = add nsw i32 %62, 1
  store i32 %63, i32* %7, align 4
  br label %48

64:                                               ; preds = %48
  br label %65

65:                                               ; preds = %64
  %66 = load i32, i32* %6, align 4
  %67 = add nsw i32 %66, 1
  store i32 %67, i32* %6, align 4
  br label %43

68:                                               ; preds = %43
  store i32 0, i32* %6, align 4
  br label %69

69:                                               ; preds = %121, %68
  %70 = load i32, i32* %6, align 4
  %71 = load i32, i32* %2, align 4
  %72 = icmp slt i32 %70, %71
  br i1 %72, label %73, label %124

73:                                               ; preds = %69
  store i32 0, i32* %7, align 4
  br label %74

74:                                               ; preds = %117, %73
  %75 = load i32, i32* %7, align 4
  %76 = load i32, i32* %5, align 4
  %77 = icmp slt i32 %75, %76
  br i1 %77, label %78, label %120

78:                                               ; preds = %74
  store i32 0, i32* %13, align 4
  br label %79

79:                                               ; preds = %113, %78
  %80 = load i32, i32* %13, align 4
  %81 = load i32, i32* %3, align 4
  %82 = icmp slt i32 %80, %81
  br i1 %82, label %83, label %116

83:                                               ; preds = %79
  %84 = load i32, i32* %6, align 4
  %85 = sext i32 %84 to i64
  %86 = getelementptr inbounds [100 x [100 x i32]], [100 x [100 x i32]]* %12, i64 0, i64 %85
  %87 = load i32, i32* %7, align 4
  %88 = sext i32 %87 to i64
  %89 = getelementptr inbounds [100 x i32], [100 x i32]* %86, i64 0, i64 %88
  %90 = load i32, i32* %89, align 4
  %91 = load i32, i32* %6, align 4
  %92 = sext i32 %91 to i64
  %93 = getelementptr inbounds [100 x [100 x i32]], [100 x [100 x i32]]* %10, i64 0, i64 %92
  %94 = load i32, i32* %13, align 4
  %95 = sext i32 %94 to i64
  %96 = getelementptr inbounds [100 x i32], [100 x i32]* %93, i64 0, i64 %95
  %97 = load i32, i32* %96, align 4
  %98 = load i32, i32* %13, align 4
  %99 = sext i32 %98 to i64
  %100 = getelementptr inbounds [100 x [100 x i32]], [100 x [100 x i32]]* %11, i64 0, i64 %99
  %101 = load i32, i32* %7, align 4
  %102 = sext i32 %101 to i64
  %103 = getelementptr inbounds [100 x i32], [100 x i32]* %100, i64 0, i64 %102
  %104 = load i32, i32* %103, align 4
  %105 = mul nsw i32 %97, %104
  %106 = add nsw i32 %90, %105
  %107 = load i32, i32* %6, align 4
  %108 = sext i32 %107 to i64
  %109 = getelementptr inbounds [100 x [100 x i32]], [100 x [100 x i32]]* %12, i64 0, i64 %108
  %110 = load i32, i32* %7, align 4
  %111 = sext i32 %110 to i64
  %112 = getelementptr inbounds [100 x i32], [100 x i32]* %109, i64 0, i64 %111
  store i32 %106, i32* %112, align 4
  br label %113

113:                                              ; preds = %83
  %114 = load i32, i32* %13, align 4
  %115 = add nsw i32 %114, 1
  store i32 %115, i32* %13, align 4
  br label %79

116:                                              ; preds = %79
  br label %117

117:                                              ; preds = %116
  %118 = load i32, i32* %7, align 4
  %119 = add nsw i32 %118, 1
  store i32 %119, i32* %7, align 4
  br label %74

120:                                              ; preds = %74
  br label %121

121:                                              ; preds = %120
  %122 = load i32, i32* %6, align 4
  %123 = add nsw i32 %122, 1
  store i32 %123, i32* %6, align 4
  br label %69

124:                                              ; preds = %69
  store i32 0, i32* %6, align 4
  br label %125

125:                                              ; preds = %161, %124
  %126 = load i32, i32* %6, align 4
  %127 = load i32, i32* %2, align 4
  %128 = icmp slt i32 %126, %127
  br i1 %128, label %129, label %164

129:                                              ; preds = %125
  store i32 0, i32* %7, align 4
  br label %130

130:                                              ; preds = %156, %129
  %131 = load i32, i32* %7, align 4
  %132 = load i32, i32* %5, align 4
  %133 = icmp slt i32 %131, %132
  br i1 %133, label %134, label %159

134:                                              ; preds = %130
  %135 = load i32, i32* %7, align 4
  %136 = icmp eq i32 %135, 0
  br i1 %136, label %137, label %146

137:                                              ; preds = %134
  %138 = load i32, i32* %6, align 4
  %139 = sext i32 %138 to i64
  %140 = getelementptr inbounds [100 x [100 x i32]], [100 x [100 x i32]]* %12, i64 0, i64 %139
  %141 = load i32, i32* %7, align 4
  %142 = sext i32 %141 to i64
  %143 = getelementptr inbounds [100 x i32], [100 x i32]* %140, i64 0, i64 %142
  %144 = load i32, i32* %143, align 4
  %145 = call i32 (i8*, ...) @printf(i8* getelementptr inbounds ([3 x i8], [3 x i8]* @.str.1, i64 0, i64 0), i32 %144)
  br label %155

146:                                              ; preds = %134
  %147 = load i32, i32* %6, align 4
  %148 = sext i32 %147 to i64
  %149 = getelementptr inbounds [100 x [100 x i32]], [100 x [100 x i32]]* %12, i64 0, i64 %148
  %150 = load i32, i32* %7, align 4
  %151 = sext i32 %150 to i64
  %152 = getelementptr inbounds [100 x i32], [100 x i32]* %149, i64 0, i64 %151
  %153 = load i32, i32* %152, align 4
  %154 = call i32 (i8*, ...) @printf(i8* getelementptr inbounds ([4 x i8], [4 x i8]* @.str.2, i64 0, i64 0), i32 %153)
  br label %155

155:                                              ; preds = %146, %137
  br label %156

156:                                              ; preds = %155
  %157 = load i32, i32* %7, align 4
  %158 = add nsw i32 %157, 1
  store i32 %158, i32* %7, align 4
  br label %130

159:                                              ; preds = %130
  %160 = call i32 (i8*, ...) @printf(i8* getelementptr inbounds ([2 x i8], [2 x i8]* @.str.3, i64 0, i64 0))
  br label %161

161:                                              ; preds = %159
  %162 = load i32, i32* %6, align 4
  %163 = add nsw i32 %162, 1
  store i32 %163, i32* %6, align 4
  br label %125

164:                                              ; preds = %125
  ret i32 0
}

; Function Attrs: argmemonly nounwind willreturn
declare void @llvm.memset.p0i8.i64(i8* nocapture writeonly, i8, i64, i1 immarg) #1

declare dso_local i32 @__isoc99_scanf(i8*, ...) #2

declare dso_local i32 @printf(i8*, ...) #2


!llvm.module.flags = !{!0}
!llvm.ident = !{!1}

!0 = !{i32 1, !"wchar_size", i32 4}
!1 = !{!"clang version 10.0.0-4ubuntu1 "}
